target datalayout = "e-m:e-p270:32:32-p271:32:32-p272:64:64-i64:64-i128:128-f80:128-n8:16:32:64-S128"
target triple = "x86_64-pc-linux-gnu"

%class.XPageAllocator = type <{ %class.XLock, %class.XPageCache, %class.XVirtualMemoryManager, %class.XPhysicalMemoryManager, i64, i64, i64, i64, i64, i64, i64, i64, i64, %class.XList.4, i64, %class.XList.4, ptr, ptr, %class.XSafeDelete, i8, [7 x i8] }>
%class.XLock = type { %class.PlatformMutex }
%class.PlatformMutex = type { %union.pthread_mutex_t }
%union.pthread_mutex_t = type { %struct.__pthread_mutex_s }
%struct.__pthread_mutex_s = type { i32, i32, i32, i32, i32, i16, i16, %struct.__pthread_internal_list }
%struct.__pthread_internal_list = type { ptr, ptr }
%class.XPageCache = type { %class.XValue, %class.XList, %class.XList, i64 }
%class.XValue = type { i64 }
%class.XList = type { %class.XListNode, i64 }
%class.XListNode = type { ptr, ptr }
%class.XVirtualMemoryManager = type <{ %class.XMemoryManager, i64, i8, [7 x i8] }>
%class.XMemoryManager = type { %class.XLock, %class.XList.2, %"struct.XMemoryManager::Callbacks" }
%class.XList.2 = type { %class.XListNode.3, i64 }
%class.XListNode.3 = type { ptr, ptr }
%"struct.XMemoryManager::Callbacks" = type { ptr, ptr, ptr, ptr, ptr, ptr }
%class.XPhysicalMemoryManager = type { %class.XPhysicalMemoryBacking, %class.XMemoryManager }
%class.XPhysicalMemoryBacking = type <{ i32, [4 x i8], i64, i64, i64, i64, i8, [7 x i8] }>
%class.XList.4 = type { %class.XListNode.5, i64 }
%class.XListNode.5 = type { ptr, ptr }
%class.XSafeDelete = type { %class.XSafeDeleteImpl, %class.XLock }
%class.XSafeDeleteImpl = type { ptr, i64, %class.GrowableArrayCHeap }
%class.GrowableArrayCHeap = type { %class.GrowableArrayWithAllocator }
%class.GrowableArrayWithAllocator = type { %class.GrowableArrayView }
%class.GrowableArrayView = type { %class.GrowableArrayBase, ptr }
%class.GrowableArrayBase = type { i32, i32 }
%class.XPage = type { i8, i8, i32, %class.XVirtualMemory, i64, %class.XLiveMap, i64, %class.XPhysicalMemory, %class.XListNode }
%class.XVirtualMemory = type { i64, i64 }
%class.XLiveMap = type { i32, i32, i64, i64, i64, %class.XBitMap, i64 }
%class.XBitMap = type { %class.CHeapBitMap.base, [7 x i8] }
%class.CHeapBitMap.base = type <{ %class.GrowableBitMap, i8 }>
%class.GrowableBitMap = type { %class.BitMap }
%class.BitMap = type { ptr, i64 }
%class.XPhysicalMemory = type { %class.GrowableArrayCHeap.8 }
%class.GrowableArrayCHeap.8 = type { %class.GrowableArrayWithAllocator.9 }
%class.GrowableArrayWithAllocator.9 = type { %class.GrowableArrayView.10 }
%class.GrowableArrayView.10 = type { %class.GrowableArrayBase, ptr }
%"struct.Atomic::PlatformAdd" = type { i8 }

; Function Attrs: mustprogress nounwind uwtable
define linkonce_odr hidden noundef i64 @_ZNK6Atomic11PlatformAddILm8EE14fetch_then_addImmEET_PVS3_T0_19atomic_memory_order(ptr noundef nonnull align 1 dereferenceable(1) %0, ptr noundef %1, i64 noundef %2, i32 noundef %3) #1 comdat align 2 {
  %5 = alloca ptr, align 8
  %6 = alloca ptr, align 8
  %7 = alloca i64, align 8
  %8 = alloca i32, align 4
  %9 = alloca i64, align 8
  store ptr %0, ptr %5, align 8
  store ptr %1, ptr %6, align 8
  store i64 %2, ptr %7, align 8
  store i32 %3, ptr %8, align 4
  %10 = load i64, ptr %7, align 8
  %11 = load ptr, ptr %6, align 8
  %12 = call i64 asm sideeffect "lock xaddq $0,($2)", "=r,0,r,~{cc},~{memory},~{dirflag},~{fpsr},~{flags}"(i64 %10, ptr %11) #7, !srcloc !18
  store i64 %12, ptr %9, align 8
  %13 = load i64, ptr %9, align 8
  ret i64 %13
}

; Function Attrs: mustprogress nounwind uwtable
define linkonce_odr hidden noundef i64 @_ZNK6Atomic11PlatformAddILm8EE14add_then_fetchImmEET_PVS3_T0_19atomic_memory_order(ptr noundef nonnull align 1 dereferenceable(1) %0, ptr noundef %1, i64 noundef %2, i32 noundef %3) #1 comdat align 2 {
  %5 = alloca ptr, align 8
  %6 = alloca ptr, align 8
  %7 = alloca i64, align 8
  %8 = alloca i32, align 4
  store ptr %0, ptr %5, align 8
  store ptr %1, ptr %6, align 8
  store i64 %2, ptr %7, align 8
  store i32 %3, ptr %8, align 4
  %9 = load ptr, ptr %5, align 8
  %10 = load ptr, ptr %6, align 8
  %11 = load i64, ptr %7, align 8
  %12 = load i32, ptr %8, align 4
  %13 = call noundef i64 @_ZNK6Atomic11PlatformAddILm8EE14fetch_then_addImmEET_PVS3_T0_19atomic_memory_order(ptr noundef nonnull align 1 dereferenceable(1) %9, ptr noundef %10, i64 noundef %11, i32 noundef %12)
  %14 = load i64, ptr %7, align 8
  %15 = add i64 %13, %14
  ret i64 %15
}

; Function Attrs: mustprogress nounwind uwtable
define linkonce_odr hidden noundef i64 @_ZN6Atomic7AddImplImmvE14add_then_fetchEPVmm19atomic_memory_order(ptr noundef %0, i64 noundef %1, i32 noundef %2) #1 comdat align 2 {
  %4 = alloca ptr, align 8
  %5 = alloca i64, align 8
  %6 = alloca i32, align 4
  %7 = alloca i64, align 8
  %8 = alloca %"struct.Atomic::PlatformAdd", align 1
  store ptr %0, ptr %4, align 8
  store i64 %1, ptr %5, align 8
  store i32 %2, ptr %6, align 4
  %9 = load i64, ptr %5, align 8
  store i64 %9, ptr %7, align 8
  %10 = load ptr, ptr %4, align 8
  %11 = load i64, ptr %7, align 8
  %12 = load i32, ptr %6, align 4
  %13 = call noundef i64 @_ZNK6Atomic11PlatformAddILm8EE14add_then_fetchImmEET_PVS3_T0_19atomic_memory_order(ptr noundef nonnull align 1 dereferenceable(1) %8, ptr noundef %10, i64 noundef %11, i32 noundef %12)
  ret i64 %13
}

; Function Attrs: mustprogress nounwind uwtable
define linkonce_odr hidden noundef i64 @_ZN6Atomic3addImmEET_PVS1_T0_19atomic_memory_order(ptr noundef %0, i64 noundef %1, i32 noundef %2) #1 comdat align 2 {
  %4 = alloca ptr, align 8
  %5 = alloca i64, align 8
  %6 = alloca i32, align 4
  store ptr %0, ptr %4, align 8
  store i64 %1, ptr %5, align 8
  store i32 %2, ptr %6, align 4
  %7 = load ptr, ptr %4, align 8
  %8 = load i64, ptr %5, align 8
  %9 = load i32, ptr %6, align 4
  %10 = call noundef i64 @_ZN6Atomic7AddImplImmvE14add_then_fetchEPVmm19atomic_memory_order(ptr noundef %7, i64 noundef %8, i32 noundef %9)
  ret i64 %10
}

; Function Attrs: mustprogress nounwind uwtable
define linkonce_odr hidden noundef i64 @_ZN6Atomic3subImmEET_PVS1_T0_19atomic_memory_order(ptr noundef %0, i64 noundef %1, i32 noundef %2) #1 comdat align 2 {
  %4 = alloca ptr, align 8
  %5 = alloca i64, align 8
  %6 = alloca i32, align 4
  %7 = alloca i64, align 8
  store ptr %0, ptr %4, align 8
  store i64 %1, ptr %5, align 8
  store i32 %2, ptr %6, align 4
  %8 = load i64, ptr %5, align 8
  store i64 %8, ptr %7, align 8
  %9 = load ptr, ptr %4, align 8
  %10 = load i64, ptr %7, align 8
  %11 = sub i64 0, %10
  %12 = load i32, ptr %6, align 4
  %13 = call noundef i64 @_ZN6Atomic3addImmEET_PVS1_T0_19atomic_memory_order(ptr noundef %9, i64 noundef %11, i32 noundef %12)
  ret i64 %13
}

; Function Attrs: mustprogress nounwind uwtable
define linkonce_odr hidden noundef i64 @_ZNK14XVirtualMemory4sizeEv(ptr noundef nonnull align 8 dereferenceable(16) %0) #1 comdat align 2 {
  %2 = alloca ptr, align 8
  store ptr %0, ptr %2, align 8
  %3 = load ptr, ptr %2, align 8
  %4 = getelementptr inbounds %class.XVirtualMemory, ptr %3, i32 0, i32 1
  %5 = load i64, ptr %4, align 8
  %6 = getelementptr inbounds %class.XVirtualMemory, ptr %3, i32 0, i32 0
  %7 = load i64, ptr %6, align 8
  %8 = sub i64 %5, %7
  ret i64 %8
}

; Function Attrs: mustprogress nounwind uwtable
define linkonce_odr hidden void @_ZN5XPage13set_last_usedEv(ptr noundef nonnull align 8 dereferenceable(136) %0) #1 comdat align 2 {
  %2 = alloca ptr, align 8
  store ptr %0, ptr %2, align 8
  %3 = load ptr, ptr %2, align 8
  %4 = call noundef double @_ZN2os11elapsedTimeEv()
  %5 = call double @llvm.ceil.f64(double %4)
  %6 = fptoui double %5 to i64
  %7 = getelementptr inbounds %class.XPage, ptr %3, i32 0, i32 6
  store i64 %6, ptr %7, align 8
  ret void
}

; Function Attrs: mustprogress nounwind uwtable
define hidden void @_ZN14XPageAllocator13decrease_usedEmb(ptr noundef nonnull align 8 dereferenceable(609) %0, i64 noundef %1, i1 noundef zeroext %2) #1 align 2 {
  %4 = alloca ptr, align 8
  %5 = alloca i64, align 8
  %6 = alloca i8, align 1
  %7 = alloca i64, align 8
  store ptr %0, ptr %4, align 8
  store i64 %1, ptr %5, align 8
  %8 = zext i1 %2 to i8
  store i8 %8, ptr %6, align 1
  %9 = load ptr, ptr %4, align 8
  %10 = load i8, ptr %6, align 1
  %11 = trunc i8 %10 to i1
  br i1 %11, label %12, label %17

12:                                               ; preds = %3
  %13 = load i64, ptr %5, align 8
  %14 = getelementptr inbounds %class.XPageAllocator, ptr %9, i32 0, i32 12
  %15 = load i64, ptr %14, align 8
  %16 = add i64 %15, %13
  store i64 %16, ptr %14, align 8
  br label %17

17:                                               ; preds = %12, %3
  %18 = getelementptr inbounds %class.XPageAllocator, ptr %9, i32 0, i32 9
  %19 = load i64, ptr %5, align 8
  %20 = call noundef i64 @_ZN6Atomic3subImmEET_PVS1_T0_19atomic_memory_order(ptr noundef %18, i64 noundef %19, i32 noundef 8)
  store i64 %20, ptr %7, align 8
  %21 = load i64, ptr %7, align 8
  %22 = getelementptr inbounds %class.XPageAllocator, ptr %9, i32 0, i32 11
  %23 = load i64, ptr %22, align 8
  %24 = icmp ult i64 %21, %23
  br i1 %24, label %25, label %28

25:                                               ; preds = %17
  %26 = load i64, ptr %7, align 8
  %27 = getelementptr inbounds %class.XPageAllocator, ptr %9, i32 0, i32 11
  store i64 %26, ptr %27, align 8
  br label %28

28:                                               ; preds = %25, %17
  ret void
}

; Function Attrs: mustprogress nounwind uwtable
define linkonce_odr hidden noundef i64 @_ZNK5XPage4sizeEv(ptr noundef nonnull align 8 dereferenceable(136) %0) #1 comdat align 2 {
  %2 = alloca ptr, align 8
  store ptr %0, ptr %2, align 8
  %3 = load ptr, ptr %2, align 8
  %4 = getelementptr inbounds %class.XPage, ptr %3, i32 0, i32 3
  %5 = call noundef i64 @_ZNK14XVirtualMemory4sizeEv(ptr noundef nonnull align 8 dereferenceable(16) %4)
  ret i64 %5
}

; Function Attrs: mustprogress nounwind uwtable
define hidden void @_ZN14XPageAllocator15free_page_innerEP5XPageb(ptr noundef nonnull align 8 dereferenceable(609) %0, ptr noundef %1, i1 noundef zeroext %2) #1 align 2 {
  %4 = alloca ptr, align 8
  %5 = alloca ptr, align 8
  %6 = alloca i8, align 1
  store ptr %0, ptr %4, align 8
  store ptr %1, ptr %5, align 8
  %7 = zext i1 %2 to i8
  store i8 %7, ptr %6, align 1
  %8 = load ptr, ptr %4, align 8
  %9 = load ptr, ptr %5, align 8
  %10 = call noundef i64 @_ZNK5XPage4sizeEv(ptr noundef nonnull align 8 dereferenceable(136) %9)
  %11 = load i8, ptr %6, align 1
  %12 = trunc i8 %11 to i1
  call void @_ZN14XPageAllocator13decrease_usedEmb(ptr noundef nonnull align 8 dereferenceable(609) %8, i64 noundef %10, i1 noundef zeroext %12)
  %13 = load ptr, ptr %5, align 8
  call void @_ZN5XPage13set_last_usedEv(ptr noundef nonnull align 8 dereferenceable(136) %13)
  %14 = getelementptr inbounds %class.XPageAllocator, ptr %8, i32 0, i32 1
  %15 = load ptr, ptr %5, align 8
  call void @_ZN10XPageCache9free_pageEP5XPage(ptr noundef nonnull align 8 dereferenceable(64) %14, ptr noundef %15)
  ret void
}