; Function Attrs: mustprogress nounwind uwtable
define hidden void @_ZN14XPageAllocator15free_page_innerEP5XPageb(ptr noundef nonnull align 8 dereferenceable(609) %0, ptr noundef %1, i1 noundef zeroext %2) local_unnamed_addr #1 align 2 {
  %4 = getelementptr inbounds i8, ptr %1, i64 8
  %5 = getelementptr inbounds i8, ptr %1, i64 16
  %6 = load i64, ptr %5, align 8
  %7 = load i64, ptr %4, align 8
  %8 = sub i64 %6, %7
  br i1 %2, label %9, label %13

9:                                                ; preds = %3
  %10 = getelementptr inbounds i8, ptr %0, i64 456
  %11 = load i64, ptr %10, align 8
  %12 = add i64 %11, %8
  store i64 %12, ptr %10, align 8
  br label %13

13:                                               ; preds = %9, %3
  %14 = getelementptr inbounds i8, ptr %0, i64 432
  %15 = sub i64 0, %8
  %16 = tail call noundef i64 asm sideeffect "lock xaddq $0,($2)", "=r,0,r,~{cc},~{memory},~{dirflag},~{fpsr},~{flags}"(i64 %15, ptr nonnull %14) #14, !srcloc !6
  %17 = sub i64 %16, %8
  %18 = getelementptr inbounds i8, ptr %0, i64 448
  %19 = load i64, ptr %18, align 8
  %20 = icmp ult i64 %17, %19
  br i1 %20, label %21, label %_ZN14XPageAllocator13decrease_usedEmb.exit

21:                                               ; preds = %13
  store i64 %17, ptr %18, align 8
  br label %_ZN14XPageAllocator13decrease_usedEmb.exit

_ZN14XPageAllocator13decrease_usedEmb.exit:       ; preds = %13, %21
  %22 = tail call noundef double @_ZN2os11elapsedTimeEv() #14
  %23 = tail call double @llvm.ceil.f64(double %22)
  %24 = fptoui double %23 to i64
  %25 = getelementptr inbounds i8, ptr %1, i64 96
  store i64 %24, ptr %25, align 8
  %26 = getelementptr inbounds i8, ptr %0, i64 40
  tail call void @_ZN10XPageCache9free_pageEP5XPage(ptr noundef nonnull align 8 dereferenceable(64) %26, ptr noundef nonnull %1) #14
  ret void
}